; Function Attrs: nounwind uwtable
define i32 @pmix12_bfrop_store_data_type(ptr noundef %0, ptr noundef %1, i16 noundef zeroext %2) local_unnamed_addr #0 {
  %4 = alloca i32, align 4
  call void @llvm.lifetime.start.p0(i64 4, ptr nonnull %4) #18
  %5 = zext i16 %2 to i32
  switch i16 %2, label %9 [
    i16 20, label %pmix12_v2_to_v1_datatype.exit
    i16 44, label %6
    i16 40, label %pmix12_v2_to_v1_datatype.exit
    i16 39, label %6
    i16 23, label %7
    i16 24, label %7
    i16 25, label %7
    i16 26, label %7
    i16 27, label %7
    i16 28, label %7
    i16 29, label %7
    i16 30, label %7
  ]

6:                                                ; preds = %3, %3
  br label %pmix12_v2_to_v1_datatype.exit

7:                                                ; preds = %3, %3, %3, %3, %3, %3, %3, %3
  %8 = add nuw nsw i32 %5, 1
  br label %pmix12_v2_to_v1_datatype.exit

9:                                                ; preds = %3
  br label %pmix12_v2_to_v1_datatype.exit

pmix12_v2_to_v1_datatype.exit:                    ; preds = %3, %3, %6, %7, %9
  %.0.i = phi i32 [ %5, %9 ], [ %8, %7 ], [ 22, %6 ], [ 6, %3 ], [ 6, %3 ]
  store i32 %.0.i, ptr %4, align 4, !tbaa !12
  %10 = call i32 @pmix12_bfrop_pack_datatype(ptr noundef %0, ptr noundef %1, ptr noundef nonnull %4, i32 noundef 1, i16 noundef zeroext 6) #18
  call void @llvm.lifetime.end.p0(i64 4, ptr nonnull %4) #18
  ret i32 %10
}